; Function Attrs: mustprogress nofree norecurse nosync nounwind willreturn memory(readwrite, inaccessiblemem: none) uwtable
define dso_local void @_ZN5ImGui29TableSetColumnWidthAutoSingleEP10ImGuiTablei(ptr noundef captures(none) %0, i32 noundef %1) local_unnamed_addr #13 {
  %3 = getelementptr inbounds nuw i8, ptr %0, i64 24
  %4 = load ptr, ptr %3, align 8, !tbaa !271
  %5 = sext i32 %1 to i64
  %6 = getelementptr inbounds %struct.ImGuiTableColumn, ptr %4, i64 %5
  %7 = getelementptr inbounds nuw i8, ptr %6, i64 102
  %8 = load i8, ptr %7, align 2, !tbaa !307, !range !152, !noundef !153
  %9 = trunc nuw i8 %8 to i1
  br i1 %9, label %10, label %14

10:                                               ; preds = %2
  %11 = getelementptr inbounds nuw i8, ptr %6, i64 112
  store i8 1, ptr %11, align 4, !tbaa !365
  %12 = trunc i32 %1 to i16
  %13 = getelementptr inbounds nuw i8, ptr %0, i64 528
  store i16 %12, ptr %13, align 8, !tbaa !294
  br label %14

14:                                               ; preds = %2, %10
  ret void
}